target datalayout = "e-m:e-p270:32:32-p271:32:32-p272:64:64-i64:64-i128:128-f80:128-n8:16:32:64-S128"
target triple = "x86_64-pc-linux-gnu"

%struct.PageHeaderData = type { %struct.PageXLogRecPtr, i16, i16, i16, i16, i16, i16, i32, [0 x %struct.ItemIdData] }
%struct.PageXLogRecPtr = type { i32, i32 }
%struct.ItemIdData = type { i32 }
%struct.RelationData = type { %struct.RelFileLocator, ptr, i32, i32, i8, i8, i8, i8, i8, i32, i32, i32, i32, ptr, ptr, i32, %struct.LockInfoData, ptr, ptr, ptr, ptr, ptr, i8, ptr, ptr, ptr, ptr, ptr, ptr, i32, ptr, i8, ptr, ptr, i32, i8, i32, ptr, i8, ptr, ptr, ptr, ptr, ptr, ptr, ptr, i32, ptr, ptr, ptr, ptr, ptr, ptr, ptr, ptr, ptr, ptr, ptr, ptr, ptr, ptr, ptr, ptr, ptr, ptr, ptr, i32, i8, ptr }
%struct.RelFileLocator = type { i32, i32, i32 }
%struct.LockInfoData = type { %struct.LockRelId }
%struct.LockRelId = type { i32, i32 }
%struct.FormData_pg_class = type { i32, %struct.nameData, i32, i32, i32, i32, i32, i32, i32, i32, float, i32, i32, i8, i8, i8, i8, i16, i16, i8, i8, i8, i8, i8, i8, i8, i8, i32, i32, i32 }
%struct.nameData = type { [64 x i8] }

@.str.1 = private unnamed_addr constant [11 x i8] c"gistutil.c\00", align 1
@.str.2 = private unnamed_addr constant [53 x i8] c"index \22%s\22 contains unexpected zero page at block %u\00", align 1
@.str.3 = private unnamed_addr constant [19 x i8] c"Please REINDEX it.\00", align 1
@__func__.gistcheckpage = private unnamed_addr constant [14 x i8] c"gistcheckpage\00", align 1
@.str.4 = private unnamed_addr constant [47 x i8] c"index \22%s\22 contains corrupted page at block %u\00", align 1
@LocalBufferBlockPointers = external global ptr, align 8
@BufferBlocks = external global ptr, align 8

; Function Attrs: inlinehint nounwind uwtable
define internal i64 @PageGetPageSize(ptr noundef %0) #2 {
  %2 = alloca ptr, align 8
  store ptr %0, ptr %2, align 8
  %3 = load ptr, ptr %2, align 8
  %4 = getelementptr inbounds nuw %struct.PageHeaderData, ptr %3, i32 0, i32 6
  %5 = load i16, ptr %4, align 2
  %6 = zext i16 %5 to i32
  %7 = and i32 %6, 65280
  %8 = sext i32 %7 to i64
  ret i64 %8
}

; Function Attrs: inlinehint nounwind uwtable
define internal ptr @BufferGetBlock(i32 noundef %0) #2 {
  %2 = alloca ptr, align 8
  %3 = alloca i32, align 4
  store i32 %0, ptr %3, align 4
  %4 = load i32, ptr %3, align 4
  %5 = icmp slt i32 %4, 0
  br i1 %5, label %6, label %14

6:                                                ; preds = %1
  %7 = load ptr, ptr @LocalBufferBlockPointers, align 8
  %8 = load i32, ptr %3, align 4
  %9 = sub i32 0, %8
  %10 = sub i32 %9, 1
  %11 = sext i32 %10 to i64
  %12 = getelementptr inbounds ptr, ptr %7, i64 %11
  %13 = load ptr, ptr %12, align 8
  store ptr %13, ptr %2, align 8
  br label %21

14:                                               ; preds = %1
  %15 = load ptr, ptr @BufferBlocks, align 8
  %16 = load i32, ptr %3, align 4
  %17 = sub i32 %16, 1
  %18 = sext i32 %17 to i64
  %19 = mul i64 %18, 8192
  %20 = getelementptr inbounds nuw i8, ptr %15, i64 %19
  store ptr %20, ptr %2, align 8
  br label %21

21:                                               ; preds = %14, %6
  %22 = load ptr, ptr %2, align 8
  ret ptr %22
}

; Function Attrs: inlinehint nounwind uwtable
define internal zeroext i16 @PageGetSpecialSize(ptr noundef %0) #2 {
  %2 = alloca ptr, align 8
  store ptr %0, ptr %2, align 8
  %3 = load ptr, ptr %2, align 8
  %4 = call i64 @PageGetPageSize(ptr noundef %3)
  %5 = load ptr, ptr %2, align 8
  %6 = getelementptr inbounds nuw %struct.PageHeaderData, ptr %5, i32 0, i32 5
  %7 = load i16, ptr %6, align 4
  %8 = zext i16 %7 to i64
  %9 = sub i64 %4, %8
  %10 = trunc i64 %9 to i16
  ret i16 %10
}

; Function Attrs: inlinehint nounwind uwtable
define internal zeroext i1 @PageIsNew(ptr noundef %0) #2 {
  %2 = alloca ptr, align 8
  store ptr %0, ptr %2, align 8
  %3 = load ptr, ptr %2, align 8
  %4 = getelementptr inbounds nuw %struct.PageHeaderData, ptr %3, i32 0, i32 4
  %5 = load i16, ptr %4, align 2
  %6 = zext i16 %5 to i32
  %7 = icmp eq i32 %6, 0
  ret i1 %7
}

; Function Attrs: inlinehint nounwind uwtable
define internal ptr @BufferGetPage(i32 noundef %0) #2 {
  %2 = alloca i32, align 4
  store i32 %0, ptr %2, align 4
  %3 = load i32, ptr %2, align 4
  %4 = call ptr @BufferGetBlock(i32 noundef %3)
  ret ptr %4
}

; Function Attrs: nounwind uwtable
define dso_local void @gistcheckpage(ptr noundef %0, i32 noundef %1) #0 {
  %3 = alloca ptr, align 8
  %4 = alloca i32, align 4
  %5 = alloca ptr, align 8
  store ptr %0, ptr %3, align 8
  store i32 %1, ptr %4, align 4
  call void @llvm.lifetime.start.p0(i64 8, ptr %5) #8
  %6 = load i32, ptr %4, align 4
  %7 = call ptr @BufferGetPage(i32 noundef %6)
  store ptr %7, ptr %5, align 8
  %8 = load ptr, ptr %5, align 8
  %9 = call zeroext i1 @PageIsNew(ptr noundef %8)
  br i1 %9, label %10, label %31

10:                                               ; preds = %2
  br label %11

11:                                               ; preds = %10
  br i1 true, label %12, label %14

12:                                               ; preds = %11
  %13 = call zeroext i1 @errstart_cold(i32 noundef 21, ptr noundef null) #9
  br i1 %13, label %16, label %28

14:                                               ; preds = %11
  %15 = call zeroext i1 @errstart(i32 noundef 21, ptr noundef null)
  br i1 %15, label %16, label %28

16:                                               ; preds = %14, %12
  %17 = call i32 @errcode(i32 noundef 33557032)
  %18 = load ptr, ptr %3, align 8
  %19 = getelementptr inbounds nuw %struct.RelationData, ptr %18, i32 0, i32 13
  %20 = load ptr, ptr %19, align 8
  %21 = getelementptr inbounds nuw %struct.FormData_pg_class, ptr %20, i32 0, i32 1
  %22 = getelementptr inbounds nuw %struct.nameData, ptr %21, i32 0, i32 0
  %23 = getelementptr inbounds [64 x i8], ptr %22, i64 0, i64 0
  %24 = load i32, ptr %4, align 4
  %25 = call i32 @BufferGetBlockNumber(i32 noundef %24)
  %26 = call i32 (ptr, ...) @errmsg(ptr noundef @.str.2, ptr noundef %23, i32 noundef %25)
  %27 = call i32 (ptr, ...) @errhint(ptr noundef @.str.3)
  call void @errfinish(ptr noundef @.str.1, i32 noundef 801, ptr noundef @__func__.gistcheckpage)
  br label %28

28:                                               ; preds = %16, %14, %12
  unreachable

29:                                               ; No predecessors!
  br label %30

30:                                               ; preds = %29
  br label %31

31:                                               ; preds = %30, %2
  %32 = load ptr, ptr %5, align 8
  %33 = call zeroext i16 @PageGetSpecialSize(ptr noundef %32)
  %34 = zext i16 %33 to i64
  %35 = icmp ne i64 %34, 16
  br i1 %35, label %36, label %57

36:                                               ; preds = %31
  br label %37

37:                                               ; preds = %36
  br i1 true, label %38, label %40

38:                                               ; preds = %37
  %39 = call zeroext i1 @errstart_cold(i32 noundef 21, ptr noundef null) #9
  br i1 %39, label %42, label %54

40:                                               ; preds = %37
  %41 = call zeroext i1 @errstart(i32 noundef 21, ptr noundef null)
  br i1 %41, label %42, label %54

42:                                               ; preds = %40, %38
  %43 = call i32 @errcode(i32 noundef 33557032)
  %44 = load ptr, ptr %3, align 8
  %45 = getelementptr inbounds nuw %struct.RelationData, ptr %44, i32 0, i32 13
  %46 = load ptr, ptr %45, align 8
  %47 = getelementptr inbounds nuw %struct.FormData_pg_class, ptr %46, i32 0, i32 1
  %48 = getelementptr inbounds nuw %struct.nameData, ptr %47, i32 0, i32 0
  %49 = getelementptr inbounds [64 x i8], ptr %48, i64 0, i64 0
  %50 = load i32, ptr %4, align 4
  %51 = call i32 @BufferGetBlockNumber(i32 noundef %50)
  %52 = call i32 (ptr, ...) @errmsg(ptr noundef @.str.4, ptr noundef %49, i32 noundef %51)
  %53 = call i32 (ptr, ...) @errhint(ptr noundef @.str.3)
  call void @errfinish(ptr noundef @.str.1, i32 noundef 812, ptr noundef @__func__.gistcheckpage)
  br label %54

54:                                               ; preds = %42, %40, %38
  unreachable

55:                                               ; No predecessors!
  br label %56

56:                                               ; preds = %55
  br label %57

57:                                               ; preds = %56, %31
  call void @llvm.lifetime.end.p0(i64 8, ptr %5) #8
  ret void
}